Certificate:
    Data:
        Version: 3 (0x2)
        Serial Number: 7143843 (0x6d01a3)
    Signature Algorithm: md5WithRSAEncryption
        Issuer: C=US, ST=Virginia, L=Herndon, O=SWsoft, Inc., OU=Plesk, CN=plesk/emailAddress=info@plesk.com
        Validity
            Not Before: Aug 20 10:02:00 2008 GMT
            Not After : Aug 20 10:02:00 2009 GMT
        Subject: C=US, ST=Virginia, L=Herndon, O=SWsoft, Inc., OU=Plesk, CN=plesk/emailAddress=info@plesk.com
        Subject Public Key Info:
            Public Key Algorithm: rsaEncryption
                Public-Key: (2048 bit)
                Modulus:
                    00:dc:bb:56:14:ea:09:a6:21:3b:00:47:35:11:3d:
                    ab:3d:0f:7a:5f:b5:f6:51:ab:94:68:58:90:cb:0f:
                    87:25:91:54:8c:10:7e:80:b2:31:09:42:e1:06:0a:
                    12:1a:8d:bd:7e:61:4e:b5:af:b4:af:5b:b9:d5:78:
                    f2:83:1d:22:3e:b5:16:7a:fb:bf:46:55:25:10:51:
                    01:04:59:3a:2f:b9:4b:24:5c:8d:27:08:5a:15:de:
                    57:1a:b5:1a:1f:cb:5a:d1:a2:09:9e:52:77:83:3a:
                    6d:a4:28:14:fa:6e:e3:5c:3b:16:e6:00:3a:71:27:
                    b5:f4:55:d3:21:8c:bd:8c:d2:b9:a0:ed:df:5e:56:
                    33:2f:7b:48:4b:53:bc:82:b1:19:fc:0a:2d:80:ec:
                    98:19:4d:f8:93:cf:44:87:f6:0e:ff:66:ab:c1:01:
                    fb:ae:bd:e4:76:26:cf:bc:ad:ab:83:92:91:64:93:
                    74:18:82:f2:e5:51:53:06:72:eb:8c:c2:19:ff:03:
                    eb:ba:77:30:4d:09:33:90:5d:72:10:38:60:cf:28:
                    33:05:37:ae:bd:75:67:99:84:a0:4f:62:14:e8:d2:
                    3e:ba:93:47:9f:83:1d:c5:f9:fc:ae:81:d4:32:19:
                    40:b4:da:f9:bd:72:46:69:c3:5e:03:86:51:23:27:
                    fb:41
                Exponent: 65537 (0x10001)
        X509v3 extensions:
            X509v3 Subject Key Identifier: 
                08:06:2C:5D:35:48:A3:E7:D7:98:55:60:77:AA:1C:71:19:8A:C4:28
            X509v3 Authority Key Identifier: 
                keyid:08:06:2C:5D:35:48:A3:E7:D7:98:55:60:77:AA:1C:71:19:8A:C4:28
                DirName:/C=US/ST=Virginia/L=Herndon/O=SWsoft, Inc./OU=Plesk/CN=plesk/emailAddress=info@plesk.com
                serial:6D:01:A3

            X509v3 Basic Constraints: 
                CA:TRUE
    Signature Algorithm: md5WithRSAEncryption
         ae:cf:ad:27:c2:32:e3:7d:f3:85:4e:6a:21:d0:a0:76:2e:79:
         2d:24:a6:18:2d:b2:a0:23:ef:d8:53:4d:8e:53:c7:a4:c3:2e:
         98:81:46:2a:63:74:76:e3:c9:64:58:40:bd:1a:ce:43:ed:69:
         78:0e:10:25:40:8e:40:90:f1:76:fb:7c:d6:49:f1:b3:d7:62:
         8d:7b:e8:cf:c0:27:18:19:61:9f:48:fe:dd:60:9f:ef:cb:a0:
         9f:6e:d1:67:81:0e:b5:85:26:92:3e:30:67:fd:e1:59:a4:93:
         6f:6e:47:29:17:13:b0:dc:d6:9f:60:f1:81:f5:bc:62:bd:26:
         2a:6d:49:45:f0:2b:87:9f:dc:1e:b8:af:0f:67:b6:e3:80:7f:
         24:63:0c:8e:e2:3f:93:25:b4:54:49:b7:36:f9:36:27:c8:7a:
         3f:63:9c:1f:64:5b:54:bb:1f:29:fb:88:69:29:6b:1c:c8:74:
         a2:99:e8:44:c7:09:5a:d6:d9:c6:b5:64:17:f2:aa:55:e8:c3:
         b0:cc:31:8e:7a:93:a1:b8:4c:18:1e:3f:10:98:28:89:8d:3d:
         35:7a:11:ec:fa:2a:a5:a5:9a:74:7b:c7:ac:5c:65:df:04:3c:
         c7:cf:7f:34:9d:5e:43:ef:4c:31:f7:87:90:2a:13:ad:f9:8b:
         c4:01:c7:32



-----BEGIN CERTIFICATE-----
MIIEejCCA2KgAwIBAgIDbQGjMA0GCSqGSIb3DQEBBAUAMIGIMQswCQYDVQQGEwJV
UzERMA8GA1UECBMIVmlyZ2luaWExEDAOBgNVBAcTB0hlcm5kb24xFTATBgNVBAoT
DFNXc29mdCwgSW5jLjEOMAwGA1UECxMFUGxlc2sxDjAMBgNVBAMTBXBsZXNrMR0w
GwYJKoZIhvcNAQkBFg5pbmZvQHBsZXNrLmNvbTAeFw0wODA4MjAxMDAyMDBaFw0w
OTA4MjAxMDAyMDBaMIGIMQswCQYDVQQGEwJVUzERMA8GA1UECBMIVmlyZ2luaWEx
EDAOBgNVBAcTB0hlcm5kb24xFTATBgNVBAoTDFNXc29mdCwgSW5jLjEOMAwGA1UE
CxMFUGxlc2sxDjAMBgNVBAMTBXBsZXNrMR0wGwYJKoZIhvcNAQkBFg5pbmZvQHBs
ZXNrLmNvbTCCASIwDQYJKoZIhvcNAQEBBQADggEPADCCAQoCggEBANy7VhTqCaYh
OwBHNRE9qz0Pel+19lGrlGhYkMsPhyWRVIwQfoCyMQlC4QYKEhqNvX5hTrWvtK9b
udV48oMdIj61Fnr7v0ZVJRBRAQRZOi+5SyRcjScIWhXeVxq1Gh/LWtGiCZ5Sd4M6
baQoFPpu41w7FuYAOnEntfRV0yGMvYzSuaDt315WMy97SEtTvIKxGfwKLYDsmBlN
+JPPRIf2Dv9mq8EB+6695HYmz7ytq4OSkWSTdBiC8uVRUwZy64zCGf8D67p3ME0J
M5BdchA4YM8oMwU3rr11Z5mEoE9iFOjSPrqTR5+DHcX5/K6B1DIZQLTa+b1yRmnD
XgOGUSMn+0ECAwEAAaOB6jCB5zAdBgNVHQ4EFgQUCAYsXTVIo+fXmFVgd6occRmK
xCgwgbcGA1UdIwSBrzCBrIAUCAYsXTVIo+fXmFVgd6occRmKxCihgY6kgYswgYgx
CzAJBgNVBAYTAlVTMREwDwYDVQQIEwhWaXJnaW5pYTEQMA4GA1UEBxMHSGVybmRv
bjEVMBMGA1UEChMMU1dzb2Z0LCBJbmMuMQ4wDAYDVQQLEwVQbGVzazEOMAwGA1UE
AxMFcGxlc2sxHTAbBgkqhkiG9w0BCQEWDmluZm9AcGxlc2suY29tggNtAaMwDAYD
VR0TBAUwAwEB/zANBgkqhkiG9w0BAQQFAAOCAQEArs+tJ8Iy433zhU5qIdCgdi55
LSSmGC2yoCPv2FNNjlPHpMMumIFGKmN0duPJZFhAvRrOQ+1peA4QJUCOQJDxdvt8
1knxs9dijXvoz8AnGBlhn0j+3WCf78ugn27RZ4EOtYUmkj4wZ/3hWaSTb25HKRcT
sNzWn2DxgfW8Yr0mKm1JRfArh5/cHrivD2e244B/JGMMjuI/kyW0VEm3Nvk2J8h6
P2OcH2RbVLsfKfuIaSlrHMh0opnoRMcJWtbZxrVkF/KqVejDsMwxjnqTobhMGB4/
EJgoiY09NXoR7PoqpaWadHvHrFxl3wQ8x89/NJ1eQ+9MMfeHkCoTrfmLxAHHMg==
-----END CERTIFICATE-----
